target datalayout = "e-m:e-p270:32:32-p271:32:32-p272:64:64-i64:64-i128:128-f80:128-n8:16:32:64-S128"
target triple = "x86_64-pc-linux-gnu"

@.str.299 = private unnamed_addr constant [6 x i8] c"SHELL\00", align 1
@.str.300 = private unnamed_addr constant [8 x i8] c"/bin/sh\00", align 1
@.str.301 = private unnamed_addr constant [8 x i8] c"exec %s\00", align 1
@.str.302 = private unnamed_addr constant [11 x i8] c"\\!: failed\00", align 1

; Function Attrs: nounwind uwtable
define internal void @ignore_slash_whole_line(ptr noundef %0) #0 {
  %2 = alloca ptr, align 8
  %3 = alloca ptr, align 8
  store ptr %0, ptr %2, align 8
  call void @llvm.lifetime.start.p0(i64 8, ptr %3) #10
  %4 = load ptr, ptr %2, align 8
  %5 = call ptr @psql_scan_slash_option(ptr noundef %4, i32 noundef 4, ptr noundef null, i1 noundef zeroext false)
  store ptr %5, ptr %3, align 8
  %6 = load ptr, ptr %3, align 8
  call void @free(ptr noundef %6) #10
  call void @llvm.lifetime.end.p0(i64 8, ptr %3) #10
  ret void
}

; Function Attrs: nounwind uwtable
define internal zeroext i1 @do_shell(ptr noundef %0) #0 {
  %2 = alloca i1, align 1
  %3 = alloca ptr, align 8
  %4 = alloca i32, align 4
  %5 = alloca ptr, align 8
  %6 = alloca ptr, align 8
  %7 = alloca i32, align 4
  store ptr %0, ptr %3, align 8
  call void @llvm.lifetime.start.p0(i64 4, ptr %4) #10
  %8 = call i32 @fflush(ptr noundef null)
  %9 = load ptr, ptr %3, align 8
  %10 = icmp ne ptr %9, null
  br i1 %10, label %22, label %11

11:                                               ; preds = %1
  call void @llvm.lifetime.start.p0(i64 8, ptr %5) #10
  call void @llvm.lifetime.start.p0(i64 8, ptr %6) #10
  %12 = call ptr @getenv(ptr noundef @.str.299) #10
  store ptr %12, ptr %6, align 8
  %13 = load ptr, ptr %6, align 8
  %14 = icmp eq ptr %13, null
  br i1 %14, label %15, label %16

15:                                               ; preds = %11
  store ptr @.str.300, ptr %6, align 8
  br label %16

16:                                               ; preds = %15, %11
  %17 = load ptr, ptr %6, align 8
  %18 = call ptr (ptr, ...) @psprintf(ptr noundef @.str.301, ptr noundef %17)
  store ptr %18, ptr %5, align 8
  %19 = load ptr, ptr %5, align 8
  %20 = call i32 @system(ptr noundef %19)
  store i32 %20, ptr %4, align 4
  %21 = load ptr, ptr %5, align 8
  call void @free(ptr noundef %21) #10
  call void @llvm.lifetime.end.p0(i64 8, ptr %6) #10
  call void @llvm.lifetime.end.p0(i64 8, ptr %5) #10
  br label %25

22:                                               ; preds = %1
  %23 = load ptr, ptr %3, align 8
  %24 = call i32 @system(ptr noundef %23)
  store i32 %24, ptr %4, align 4
  br label %25

25:                                               ; preds = %22, %16
  %26 = load i32, ptr %4, align 4
  call void @SetShellResultVariables(i32 noundef %26)
  %27 = load i32, ptr %4, align 4
  %28 = icmp eq i32 %27, 127
  br i1 %28, label %32, label %29

29:                                               ; preds = %25
  %30 = load i32, ptr %4, align 4
  %31 = icmp eq i32 %30, -1
  br i1 %31, label %32, label %33

32:                                               ; preds = %29, %25
  call void (i32, i32, ptr, ...) @pg_log_generic(i32 noundef 4, i32 noundef 0, ptr noundef @.str.302)
  store i1 false, ptr %2, align 1
  store i32 1, ptr %7, align 4
  br label %34

33:                                               ; preds = %29
  store i1 true, ptr %2, align 1
  store i32 1, ptr %7, align 4
  br label %34

34:                                               ; preds = %33, %32
  call void @llvm.lifetime.end.p0(i64 4, ptr %4) #10
  %35 = load i1, ptr %2, align 1
  ret i1 %35
}

; Function Attrs: nounwind uwtable
define internal i32 @exec_command_shell_escape(ptr noundef %0, i1 noundef zeroext %1) #0 {
  %3 = alloca ptr, align 8
  %4 = alloca i8, align 1
  %5 = alloca i8, align 1
  %6 = alloca ptr, align 8
  store ptr %0, ptr %3, align 8
  %7 = zext i1 %1 to i8
  store i8 %7, ptr %4, align 1
  call void @llvm.lifetime.start.p0(i64 1, ptr %5) #10
  store i8 1, ptr %5, align 1
  %8 = load i8, ptr %4, align 1, !range !4, !noundef !5
  %9 = trunc i8 %8 to i1
  br i1 %9, label %10, label %17

10:                                               ; preds = %2
  call void @llvm.lifetime.start.p0(i64 8, ptr %6) #10
  %11 = load ptr, ptr %3, align 8
  %12 = call ptr @psql_scan_slash_option(ptr noundef %11, i32 noundef 4, ptr noundef null, i1 noundef zeroext false)
  store ptr %12, ptr %6, align 8
  %13 = load ptr, ptr %6, align 8
  %14 = call zeroext i1 @do_shell(ptr noundef %13)
  %15 = zext i1 %14 to i8
  store i8 %15, ptr %5, align 1
  %16 = load ptr, ptr %6, align 8
  call void @free(ptr noundef %16) #10
  call void @llvm.lifetime.end.p0(i64 8, ptr %6) #10
  br label %19

17:                                               ; preds = %2
  %18 = load ptr, ptr %3, align 8
  call void @ignore_slash_whole_line(ptr noundef %18)
  br label %19

19:                                               ; preds = %17, %10
  %20 = load i8, ptr %5, align 1, !range !4, !noundef !5
  %21 = trunc i8 %20 to i1
  %22 = select i1 %21, i32 2, i32 5
  call void @llvm.lifetime.end.p0(i64 1, ptr %5) #10
  ret i32 %22
}