; Function Attrs: nounwind uwtable
define internal fastcc range(i32 2, 6) i32 @exec_command_shell_escape(ptr noundef %0, i1 noundef zeroext %1) unnamed_addr #0 {
  %3 = tail call ptr @psql_scan_slash_option(ptr noundef %0, i32 noundef 4, ptr noundef null, i1 noundef zeroext false) #16
  br i1 %1, label %4, label %18

4:                                                ; preds = %2
  %5 = tail call i32 @fflush(ptr noundef null)
  %.not.i = icmp eq ptr %3, null
  br i1 %.not.i, label %6, label %11

6:                                                ; preds = %4
  %7 = tail call ptr @getenv(ptr noundef nonnull @.str.299) #16
  %8 = icmp eq ptr %7, null
  %spec.store.select.i = select i1 %8, ptr @.str.300, ptr %7
  %9 = tail call ptr (ptr, ...) @psprintf(ptr noundef nonnull @.str.301, ptr noundef nonnull %spec.store.select.i) #16
  %10 = tail call i32 @system(ptr noundef %9) #16
  tail call void @free(ptr noundef %9) #16
  br label %13

11:                                               ; preds = %4
  %12 = tail call i32 @system(ptr noundef nonnull readonly %3) #16
  br label %13

13:                                               ; preds = %11, %6
  %.010.i = phi i32 [ %12, %11 ], [ %10, %6 ]
  tail call void @SetShellResultVariables(i32 noundef %.010.i) #16
  switch i32 %.010.i, label %do_shell.exit [
    i32 -1, label %14
    i32 127, label %14
  ]

14:                                               ; preds = %13, %13
  tail call void (i32, i32, ptr, ...) @pg_log_generic(i32 noundef 4, i32 noundef 0, ptr noundef nonnull @.str.302) #16
  br label %do_shell.exit

do_shell.exit:                                    ; preds = %13, %14
  %15 = icmp ne i32 %.010.i, 127
  %16 = icmp ne i32 %.010.i, -1
  %or.cond.not.i = and i1 %15, %16
  tail call void @free(ptr noundef %3) #16
  %17 = select i1 %or.cond.not.i, i32 2, i32 5
  br label %19

18:                                               ; preds = %2
  tail call void @free(ptr noundef %3) #16
  br label %19

19:                                               ; preds = %18, %do_shell.exit
  %.0 = phi i32 [ %17, %do_shell.exit ], [ 2, %18 ]
  ret i32 %.0
}